target datalayout = "e-m:e-p270:32:32-p271:32:32-p272:64:64-i64:64-i128:128-f80:128-n8:16:32:64-S128"
target triple = "x86_64-unknown-linux-gnu"

%"class.absl::debian2::string_view" = type { ptr, i64 }
%"class.re2::Regexp::ParseState" = type { i32, %"class.absl::debian2::string_view", ptr, ptr, i32, i32 }
%"class.re2::Regexp" = type { i8, i8, i16, i16, i16, %union.anon, ptr, %union.anon.0 }
%union.anon = type { ptr }
%union.anon.0 = type { %struct.anon.1 }
%struct.anon.1 = type { i32, ptr }

; Function Attrs: mustprogress uwtable
define void @_ZN3re26Regexp10ParseState13DoAlternationEv(ptr noundef nonnull align 8 dereferenceable(48) %this) #1 align 2 {
entry:
  %this.addr = alloca ptr, align 8
  %r1 = alloca ptr, align 8
  store ptr %this, ptr %this.addr, align 8
  %this1 = load ptr, ptr %this.addr, align 8
  %call = call noundef zeroext i1 @_ZN3re26Regexp10ParseState13DoVerticalBarEv(ptr noundef nonnull align 8 dereferenceable(48) %this1)
  %stacktop_ = getelementptr inbounds %"class.re2::Regexp::ParseState", ptr %this1, i32 0, i32 3
  %0 = load ptr, ptr %stacktop_, align 8
  store ptr %0, ptr %r1, align 8
  %1 = load ptr, ptr %r1, align 8
  %down_ = getelementptr inbounds %"class.re2::Regexp", ptr %1, i32 0, i32 6
  %2 = load ptr, ptr %down_, align 8
  %stacktop_2 = getelementptr inbounds %"class.re2::Regexp::ParseState", ptr %this1, i32 0, i32 3
  store ptr %2, ptr %stacktop_2, align 8
  %3 = load ptr, ptr %r1, align 8
  call void @_ZN3re26Regexp6DecrefEv(ptr noundef nonnull align 8 dereferenceable(40) %3)
  call void @_ZN3re26Regexp10ParseState10DoCollapseENS_8RegexpOpE(ptr noundef nonnull align 8 dereferenceable(48) %this1, i32 noundef 6)
  ret void
}