; Function Attrs: mustprogress uwtable
define void @_ZN3re26Regexp10ParseState13DoAlternationEv(ptr nocapture noundef nonnull align 8 dereferenceable(48) %this) local_unnamed_addr #8 align 2 {
entry:
  %call = tail call noundef zeroext i1 @_ZN3re26Regexp10ParseState13DoVerticalBarEv(ptr noundef nonnull align 8 dereferenceable(48) %this)
  %stacktop_ = getelementptr inbounds i8, ptr %this, i64 32
  %0 = load ptr, ptr %stacktop_, align 8
  %down_ = getelementptr inbounds i8, ptr %0, i64 16
  %1 = load ptr, ptr %down_, align 8
  store ptr %1, ptr %stacktop_, align 8
  tail call void @_ZN3re26Regexp6DecrefEv(ptr noundef nonnull align 8 dereferenceable(40) %0)
  tail call void @_ZN3re26Regexp10ParseState10DoCollapseENS_8RegexpOpE(ptr noundef nonnull align 8 dereferenceable(48) %this, i32 noundef 6)
  ret void
}